target datalayout = "e-m:e-p270:32:32-p271:32:32-p272:64:64-i64:64-i128:128-f80:128-n8:16:32:64-S128"
target triple = "x86_64-pc-linux-gnu"

%struct.anon = type { i8 }
%union.anon = type { %struct.anon.2 }
%struct.anon.2 = type { i8, i8, ptr, ptr }
%struct.AbiType = type { %union.anon.1 }
%union.anon.1 = type { ptr }
%struct.ABIArgInfo_ = type { i32, i8, %struct.anon, %union.anon }
%struct.anon.0 = type { %struct.AbiType, %struct.AbiType }

; Function Attrs: nounwind uwtable
define internal ptr @abi_arg_new(i32 noundef %0) #0 {
  %2 = alloca i32, align 4
  %3 = alloca ptr, align 8
  store i32 %0, ptr %2, align 4
  %4 = call ptr @calloc_arena(i64 noundef 32)
  store ptr %4, ptr %3, align 8
  %5 = load i32, ptr %2, align 4
  %6 = load ptr, ptr %3, align 8
  %7 = getelementptr inbounds %struct.ABIArgInfo_, ptr %6, i32 0, i32 1
  %8 = trunc i32 %5 to i8
  %9 = load i8, ptr %7, align 4
  %10 = and i8 %8, 63
  %11 = and i8 %9, -64
  %12 = or i8 %11, %10
  store i8 %12, ptr %7, align 4
  %13 = load ptr, ptr %3, align 8
  ret ptr %13
}

; Function Attrs: nounwind uwtable
define dso_local ptr @abi_arg_new_direct_pair(ptr %0, ptr %1) #0 {
  %3 = alloca %struct.AbiType, align 8
  %4 = alloca %struct.AbiType, align 8
  %5 = alloca ptr, align 8
  %6 = getelementptr inbounds %struct.AbiType, ptr %3, i32 0, i32 0
  %7 = getelementptr inbounds %union.anon.1, ptr %6, i32 0, i32 0
  store ptr %0, ptr %7, align 8
  %8 = getelementptr inbounds %struct.AbiType, ptr %4, i32 0, i32 0
  %9 = getelementptr inbounds %union.anon.1, ptr %8, i32 0, i32 0
  store ptr %1, ptr %9, align 8
  %10 = call ptr @abi_arg_new(i32 noundef 2)
  store ptr %10, ptr %5, align 8
  %11 = load ptr, ptr %5, align 8
  %12 = getelementptr inbounds %struct.ABIArgInfo_, ptr %11, i32 0, i32 3
  %13 = getelementptr inbounds %struct.anon.0, ptr %12, i32 0, i32 1
  call void @llvm.memcpy.p0.p0.i64(ptr align 8 %13, ptr align 8 %4, i64 8, i1 false)
  %14 = load ptr, ptr %5, align 8
  %15 = getelementptr inbounds %struct.ABIArgInfo_, ptr %14, i32 0, i32 3
  %16 = getelementptr inbounds %struct.anon.0, ptr %15, i32 0, i32 0
  call void @llvm.memcpy.p0.p0.i64(ptr align 8 %16, ptr align 8 %3, i64 8, i1 false)
  %17 = load ptr, ptr %5, align 8
  ret ptr %17
}