; Function Attrs: nounwind uwtable
define dso_local ptr @abi_arg_new_direct_pair(ptr %0, ptr %1) local_unnamed_addr #2 {
  %3 = tail call ptr @calloc_arena(i64 noundef 32) #5
  %4 = getelementptr inbounds i8, ptr %3, i64 4
  %5 = load i8, ptr %4, align 4
  %6 = and i8 %5, -64
  %7 = or disjoint i8 %6, 2
  store i8 %7, ptr %4, align 4
  %8 = getelementptr inbounds i8, ptr %3, i64 8
  %9 = getelementptr inbounds i8, ptr %3, i64 16
  store ptr %1, ptr %9, align 8
  store ptr %0, ptr %8, align 8
  ret ptr %3
}